target datalayout = "e-m:e-p270:32:32-p271:32:32-p272:64:64-i64:64-i128:128-f80:128-n8:16:32:64-S128"
target triple = "x86_64-pc-linux-gnu"

%"class.gmx::DomDecHelper" = type { %"class.gmx::INeighborSearchSignallerClient", i64, i8, i32, %"class.std::vector", ptr, ptr, ptr, ptr, ptr, ptr, ptr, ptr, ptr, ptr, ptr, ptr, ptr, ptr, ptr }
%"class.gmx::INeighborSearchSignallerClient" = type { ptr }
%"class.std::vector" = type { %"struct.std::_Vector_base" }
%"struct.std::_Vector_base" = type { %"struct.std::_Vector_base<std::function<void ()>, std::allocator<std::function<void ()>>>::_Vector_impl" }
%"struct.std::_Vector_base<std::function<void ()>, std::allocator<std::function<void ()>>>::_Vector_impl" = type { %"struct.std::_Vector_base<std::function<void ()>, std::allocator<std::function<void ()>>>::_Vector_impl_data" }
%"struct.std::_Vector_base<std::function<void ()>, std::allocator<std::function<void ()>>>::_Vector_impl_data" = type { ptr, ptr, ptr }

@_ZTVN3gmx12DomDecHelperE = unnamed_addr constant { [5 x ptr] } { [5 x ptr] [ptr null, ptr @_ZTIN3gmx12DomDecHelperE, ptr @_ZN3gmx12DomDecHelperD2Ev, ptr @_ZN3gmx12DomDecHelperD0Ev, ptr @_ZN3gmx12DomDecHelper18registerNSCallbackEv] }, align 8

; Function Attrs: mustprogress nounwind uwtable
define linkonce_odr void @_ZNSt15__new_allocatorISt8functionIFvvEEEC2ERKS3_(ptr noundef nonnull align 1 dereferenceable(1) %0, ptr noundef nonnull align 1 dereferenceable(1) %1) unnamed_addr #1 comdat align 2 {
  %3 = alloca ptr, align 8
  %4 = alloca ptr, align 8
  store ptr %0, ptr %3, align 8, !tbaa !88
  store ptr %1, ptr %4, align 8, !tbaa !88
  ret void
}

; Function Attrs: mustprogress nounwind uwtable
define linkonce_odr void @_ZNSt12_Vector_baseISt8functionIFvvEESaIS2_EE17_Vector_impl_dataC2EOS5_(ptr noundef nonnull align 8 dereferenceable(24) %0, ptr noundef nonnull align 8 dereferenceable(24) %1) unnamed_addr #1 comdat align 2 {
  %3 = alloca ptr, align 8
  %4 = alloca ptr, align 8
  store ptr %0, ptr %3, align 8, !tbaa !83
  store ptr %1, ptr %4, align 8, !tbaa !83
  %5 = load ptr, ptr %3, align 8
  %6 = getelementptr inbounds nuw %"struct.std::_Vector_base<std::function<void ()>, std::allocator<std::function<void ()>>>::_Vector_impl_data", ptr %5, i32 0, i32 0
  %7 = load ptr, ptr %4, align 8, !tbaa !83
  %8 = getelementptr inbounds nuw %"struct.std::_Vector_base<std::function<void ()>, std::allocator<std::function<void ()>>>::_Vector_impl_data", ptr %7, i32 0, i32 0
  %9 = load ptr, ptr %8, align 8, !tbaa !85
  store ptr %9, ptr %6, align 8, !tbaa !85
  %10 = getelementptr inbounds nuw %"struct.std::_Vector_base<std::function<void ()>, std::allocator<std::function<void ()>>>::_Vector_impl_data", ptr %5, i32 0, i32 1
  %11 = load ptr, ptr %4, align 8, !tbaa !83
  %12 = getelementptr inbounds nuw %"struct.std::_Vector_base<std::function<void ()>, std::allocator<std::function<void ()>>>::_Vector_impl_data", ptr %11, i32 0, i32 1
  %13 = load ptr, ptr %12, align 8, !tbaa !86
  store ptr %13, ptr %10, align 8, !tbaa !86
  %14 = getelementptr inbounds nuw %"struct.std::_Vector_base<std::function<void ()>, std::allocator<std::function<void ()>>>::_Vector_impl_data", ptr %5, i32 0, i32 2
  %15 = load ptr, ptr %4, align 8, !tbaa !83
  %16 = getelementptr inbounds nuw %"struct.std::_Vector_base<std::function<void ()>, std::allocator<std::function<void ()>>>::_Vector_impl_data", ptr %15, i32 0, i32 2
  %17 = load ptr, ptr %16, align 8, !tbaa !87
  store ptr %17, ptr %14, align 8, !tbaa !87
  %18 = load ptr, ptr %4, align 8, !tbaa !83
  %19 = getelementptr inbounds nuw %"struct.std::_Vector_base<std::function<void ()>, std::allocator<std::function<void ()>>>::_Vector_impl_data", ptr %18, i32 0, i32 2
  store ptr null, ptr %19, align 8, !tbaa !87
  %20 = load ptr, ptr %4, align 8, !tbaa !83
  %21 = getelementptr inbounds nuw %"struct.std::_Vector_base<std::function<void ()>, std::allocator<std::function<void ()>>>::_Vector_impl_data", ptr %20, i32 0, i32 1
  store ptr null, ptr %21, align 8, !tbaa !86
  %22 = load ptr, ptr %4, align 8, !tbaa !83
  %23 = getelementptr inbounds nuw %"struct.std::_Vector_base<std::function<void ()>, std::allocator<std::function<void ()>>>::_Vector_impl_data", ptr %22, i32 0, i32 0
  store ptr null, ptr %23, align 8, !tbaa !85
  ret void
}

; Function Attrs: mustprogress nounwind uwtable
define linkonce_odr void @_ZNSaISt8functionIFvvEEEC2ERKS2_(ptr noundef nonnull align 1 dereferenceable(1) %0, ptr noundef nonnull align 1 dereferenceable(1) %1) unnamed_addr #1 comdat align 2 {
  %3 = alloca ptr, align 8
  %4 = alloca ptr, align 8
  store ptr %0, ptr %3, align 8, !tbaa !81
  store ptr %1, ptr %4, align 8, !tbaa !81
  %5 = load ptr, ptr %3, align 8
  %6 = load ptr, ptr %4, align 8, !tbaa !81
  call void @_ZNSt15__new_allocatorISt8functionIFvvEEEC2ERKS3_(ptr noundef nonnull align 1 dereferenceable(1) %5, ptr noundef nonnull align 1 dereferenceable(1) %6) #18
  ret void
}

; Function Attrs: mustprogress nounwind uwtable
define linkonce_odr void @_ZNSt12_Vector_baseISt8functionIFvvEESaIS2_EE12_Vector_implC2EOS5_(ptr noundef nonnull align 8 dereferenceable(24) %0, ptr noundef nonnull align 8 dereferenceable(24) %1) unnamed_addr #1 comdat align 2 {
  %3 = alloca ptr, align 8
  %4 = alloca ptr, align 8
  store ptr %0, ptr %3, align 8, !tbaa !79
  store ptr %1, ptr %4, align 8, !tbaa !79
  %5 = load ptr, ptr %3, align 8
  %6 = load ptr, ptr %4, align 8, !tbaa !79
  call void @_ZNSaISt8functionIFvvEEEC2ERKS2_(ptr noundef nonnull align 1 dereferenceable(1) %5, ptr noundef nonnull align 1 dereferenceable(1) %6) #18
  %7 = load ptr, ptr %4, align 8, !tbaa !79
  call void @_ZNSt12_Vector_baseISt8functionIFvvEESaIS2_EE17_Vector_impl_dataC2EOS5_(ptr noundef nonnull align 8 dereferenceable(24) %5, ptr noundef nonnull align 8 dereferenceable(24) %7) #18
  ret void
}

; Function Attrs: mustprogress nounwind uwtable
define linkonce_odr void @_ZNSt12_Vector_baseISt8functionIFvvEESaIS2_EEC2EOS4_(ptr noundef nonnull align 8 dereferenceable(24) %0, ptr noundef nonnull align 8 dereferenceable(24) %1) unnamed_addr #1 comdat align 2 {
  %3 = alloca ptr, align 8
  %4 = alloca ptr, align 8
  store ptr %0, ptr %3, align 8, !tbaa !77
  store ptr %1, ptr %4, align 8, !tbaa !77
  %5 = load ptr, ptr %3, align 8
  %6 = getelementptr inbounds nuw %"struct.std::_Vector_base", ptr %5, i32 0, i32 0
  %7 = load ptr, ptr %4, align 8, !tbaa !77
  %8 = getelementptr inbounds nuw %"struct.std::_Vector_base", ptr %7, i32 0, i32 0
  call void @_ZNSt12_Vector_baseISt8functionIFvvEESaIS2_EE12_Vector_implC2EOS5_(ptr noundef nonnull align 8 dereferenceable(24) %6, ptr noundef nonnull align 8 dereferenceable(24) %8) #18
  ret void
}

; Function Attrs: mustprogress nounwind uwtable
define linkonce_odr void @_ZNSt6vectorISt8functionIFvvEESaIS2_EEC2EOS4_(ptr noundef nonnull align 8 dereferenceable(24) %0, ptr noundef nonnull align 8 dereferenceable(24) %1) unnamed_addr #1 comdat align 2 {
  %3 = alloca ptr, align 8
  %4 = alloca ptr, align 8
  store ptr %0, ptr %3, align 8, !tbaa !45
  store ptr %1, ptr %4, align 8, !tbaa !45
  %5 = load ptr, ptr %3, align 8
  %6 = load ptr, ptr %4, align 8, !tbaa !45
  call void @_ZNSt12_Vector_baseISt8functionIFvvEESaIS2_EEC2EOS4_(ptr noundef nonnull align 8 dereferenceable(24) %5, ptr noundef nonnull align 8 dereferenceable(24) %6) #18
  ret void
}

; Function Attrs: inlinehint mustprogress nounwind uwtable
define linkonce_odr void @_ZN3gmx30INeighborSearchSignallerClientC2Ev(ptr noundef nonnull align 8 dereferenceable(8) %0) unnamed_addr #0 comdat align 2 {
  %2 = alloca ptr, align 8
  store ptr %0, ptr %2, align 8, !tbaa !75
  %3 = load ptr, ptr %2, align 8
  store ptr getelementptr inbounds inrange(-16, 24) ({ [5 x ptr] }, ptr @_ZTVN3gmx30INeighborSearchSignallerClientE, i32 0, i32 0, i32 2), ptr %3, align 8, !tbaa !47
  ret void
}

; Function Attrs: mustprogress nounwind uwtable
define void @_ZN3gmx12DomDecHelperC2EbiPNS_19StatePropagatorDataEPNS_14TopologyHolderEP8_IO_FILEP9t_commrecRKNS_8MDLoggerEPNS_11ConstraintsEPK10t_inputrecRKNS_18MDModulesNotifiersEPNS_7MDAtomsEP6t_nrnbP13gmx_wallcycleP10t_forcerecPNS_19VirtualSitesHandlerEPNS_10ImdSessionEP6pull_tOSt6vectorISt8functionIFvvEESaIS11_EE(ptr noundef nonnull align 8 dereferenceable(168) %0, i1 noundef zeroext %1, i32 noundef %2, ptr noundef %3, ptr noundef %4, ptr noundef %5, ptr noundef %6, ptr noundef nonnull align 8 dereferenceable(40) %7, ptr noundef %8, ptr noundef %9, ptr noundef nonnull align 1 %10, ptr noundef %11, ptr noundef %12, ptr noundef %13, ptr noundef %14, ptr noundef %15, ptr noundef %16, ptr noundef %17, ptr noundef nonnull align 8 dereferenceable(24) %18) unnamed_addr #1 align 2 {
  %20 = alloca ptr, align 8
  %21 = alloca i8, align 1
  %22 = alloca i32, align 4
  %23 = alloca ptr, align 8
  %24 = alloca ptr, align 8
  %25 = alloca ptr, align 8
  %26 = alloca ptr, align 8
  %27 = alloca ptr, align 8
  %28 = alloca ptr, align 8
  %29 = alloca ptr, align 8
  %30 = alloca ptr, align 8
  %31 = alloca ptr, align 8
  %32 = alloca ptr, align 8
  %33 = alloca ptr, align 8
  %34 = alloca ptr, align 8
  %35 = alloca ptr, align 8
  %36 = alloca ptr, align 8
  %37 = alloca ptr, align 8
  %38 = alloca ptr, align 8
  store ptr %0, ptr %20, align 8, !tbaa !4
  %39 = zext i1 %1 to i8
  store i8 %39, ptr %21, align 1, !tbaa !11
  store i32 %2, ptr %22, align 4, !tbaa !13
  store ptr %3, ptr %23, align 8, !tbaa !15
  store ptr %4, ptr %24, align 8, !tbaa !17
  store ptr %5, ptr %25, align 8, !tbaa !19
  store ptr %6, ptr %26, align 8, !tbaa !21
  store ptr %7, ptr %27, align 8, !tbaa !23
  store ptr %8, ptr %28, align 8, !tbaa !25
  store ptr %9, ptr %29, align 8, !tbaa !27
  store ptr %10, ptr %30, align 8, !tbaa !29
  store ptr %11, ptr %31, align 8, !tbaa !31
  store ptr %12, ptr %32, align 8, !tbaa !33
  store ptr %13, ptr %33, align 8, !tbaa !35
  store ptr %14, ptr %34, align 8, !tbaa !37
  store ptr %15, ptr %35, align 8, !tbaa !39
  store ptr %16, ptr %36, align 8, !tbaa !41
  store ptr %17, ptr %37, align 8, !tbaa !43
  store ptr %18, ptr %38, align 8, !tbaa !45
  %40 = load ptr, ptr %20, align 8
  call void @_ZN3gmx30INeighborSearchSignallerClientC2Ev(ptr noundef nonnull align 8 dereferenceable(8) %40) #18
  store ptr getelementptr inbounds inrange(-16, 24) ({ [5 x ptr] }, ptr @_ZTVN3gmx12DomDecHelperE, i32 0, i32 0, i32 2), ptr %40, align 8, !tbaa !47
  %41 = getelementptr inbounds nuw %"class.gmx::DomDecHelper", ptr %40, i32 0, i32 1
  store i64 -1, ptr %41, align 8, !tbaa !49
  %42 = getelementptr inbounds nuw %"class.gmx::DomDecHelper", ptr %40, i32 0, i32 2
  %43 = load i8, ptr %21, align 1, !tbaa !11, !range !58, !noundef !59
  %44 = trunc i8 %43 to i1
  %45 = zext i1 %44 to i8
  store i8 %45, ptr %42, align 8, !tbaa !60
  %46 = getelementptr inbounds nuw %"class.gmx::DomDecHelper", ptr %40, i32 0, i32 3
  %47 = load i32, ptr %22, align 4, !tbaa !13
  store i32 %47, ptr %46, align 4, !tbaa !61
  %48 = getelementptr inbounds nuw %"class.gmx::DomDecHelper", ptr %40, i32 0, i32 4
  %49 = load ptr, ptr %38, align 8, !tbaa !45
  call void @_ZNSt6vectorISt8functionIFvvEESaIS2_EEC2EOS4_(ptr noundef nonnull align 8 dereferenceable(24) %48, ptr noundef nonnull align 8 dereferenceable(24) %49) #18
  %50 = getelementptr inbounds nuw %"class.gmx::DomDecHelper", ptr %40, i32 0, i32 5
  %51 = load ptr, ptr %23, align 8, !tbaa !15
  store ptr %51, ptr %50, align 8, !tbaa !62
  %52 = getelementptr inbounds nuw %"class.gmx::DomDecHelper", ptr %40, i32 0, i32 6
  %53 = load ptr, ptr %24, align 8, !tbaa !17
  store ptr %53, ptr %52, align 8, !tbaa !63
  %54 = getelementptr inbounds nuw %"class.gmx::DomDecHelper", ptr %40, i32 0, i32 7
  %55 = load ptr, ptr %25, align 8, !tbaa !19
  store ptr %55, ptr %54, align 8, !tbaa !64
  %56 = getelementptr inbounds nuw %"class.gmx::DomDecHelper", ptr %40, i32 0, i32 8
  %57 = load ptr, ptr %26, align 8, !tbaa !21
  store ptr %57, ptr %56, align 8, !tbaa !65
  %58 = getelementptr inbounds nuw %"class.gmx::DomDecHelper", ptr %40, i32 0, i32 9
  %59 = load ptr, ptr %27, align 8, !tbaa !23
  store ptr %59, ptr %58, align 8, !tbaa !23
  %60 = getelementptr inbounds nuw %"class.gmx::DomDecHelper", ptr %40, i32 0, i32 10
  %61 = load ptr, ptr %28, align 8, !tbaa !25
  store ptr %61, ptr %60, align 8, !tbaa !66
  %62 = getelementptr inbounds nuw %"class.gmx::DomDecHelper", ptr %40, i32 0, i32 11
  %63 = load ptr, ptr %29, align 8, !tbaa !27
  store ptr %63, ptr %62, align 8, !tbaa !67
  %64 = getelementptr inbounds nuw %"class.gmx::DomDecHelper", ptr %40, i32 0, i32 12
  %65 = load ptr, ptr %30, align 8, !tbaa !29
  store ptr %65, ptr %64, align 8, !tbaa !29
  %66 = getelementptr inbounds nuw %"class.gmx::DomDecHelper", ptr %40, i32 0, i32 13
  %67 = load ptr, ptr %31, align 8, !tbaa !31
  store ptr %67, ptr %66, align 8, !tbaa !68
  %68 = getelementptr inbounds nuw %"class.gmx::DomDecHelper", ptr %40, i32 0, i32 14
  %69 = load ptr, ptr %32, align 8, !tbaa !33
  store ptr %69, ptr %68, align 8, !tbaa !69
  %70 = getelementptr inbounds nuw %"class.gmx::DomDecHelper", ptr %40, i32 0, i32 15
  %71 = load ptr, ptr %33, align 8, !tbaa !35
  store ptr %71, ptr %70, align 8, !tbaa !70
  %72 = getelementptr inbounds nuw %"class.gmx::DomDecHelper", ptr %40, i32 0, i32 16
  %73 = load ptr, ptr %34, align 8, !tbaa !37
  store ptr %73, ptr %72, align 8, !tbaa !71
  %74 = getelementptr inbounds nuw %"class.gmx::DomDecHelper", ptr %40, i32 0, i32 17
  %75 = load ptr, ptr %35, align 8, !tbaa !39
  store ptr %75, ptr %74, align 8, !tbaa !72
  %76 = getelementptr inbounds nuw %"class.gmx::DomDecHelper", ptr %40, i32 0, i32 18
  %77 = load ptr, ptr %36, align 8, !tbaa !41
  store ptr %77, ptr %76, align 8, !tbaa !73
  %78 = getelementptr inbounds nuw %"class.gmx::DomDecHelper", ptr %40, i32 0, i32 19
  %79 = load ptr, ptr %37, align 8, !tbaa !43
  store ptr %79, ptr %78, align 8, !tbaa !74
  ret void
}