; Function Attrs: mustprogress nofree norecurse nosync nounwind willreturn memory(argmem: readwrite) uwtable
define void @_ZN3gmx12DomDecHelperC2EbiPNS_19StatePropagatorDataEPNS_14TopologyHolderEP8_IO_FILEP9t_commrecRKNS_8MDLoggerEPNS_11ConstraintsEPK10t_inputrecRKNS_18MDModulesNotifiersEPNS_7MDAtomsEP6t_nrnbP13gmx_wallcycleP10t_forcerecPNS_19VirtualSitesHandlerEPNS_10ImdSessionEP6pull_tOSt6vectorISt8functionIFvvEESaIS11_EE(ptr noundef nonnull writeonly align 8 captures(none) dereferenceable(168) initializes((0, 17), (20, 168)) %0, i1 noundef zeroext %1, i32 noundef %2, ptr noundef %3, ptr noundef %4, ptr noundef %5, ptr noundef %6, ptr noundef nonnull align 8 dereferenceable(40) %7, ptr noundef %8, ptr noundef %9, ptr noundef nonnull align 1 %10, ptr noundef %11, ptr noundef %12, ptr noundef %13, ptr noundef %14, ptr noundef %15, ptr noundef %16, ptr noundef %17, ptr noundef nonnull align 8 captures(none) dereferenceable(24) %18) unnamed_addr #2 align 2 {
  %20 = zext i1 %1 to i8
  store ptr getelementptr inbounds nuw inrange(-16, 24) (i8, ptr @_ZTVN3gmx12DomDecHelperE, i64 16), ptr %0, align 8, !tbaa !23
  %21 = getelementptr inbounds nuw i8, ptr %0, i64 8
  store i64 -1, ptr %21, align 8, !tbaa !25
  %22 = getelementptr inbounds nuw i8, ptr %0, i64 16
  store i8 %20, ptr %22, align 8, !tbaa !48
  %23 = getelementptr inbounds nuw i8, ptr %0, i64 20
  store i32 %2, ptr %23, align 4, !tbaa !49
  %24 = getelementptr inbounds nuw i8, ptr %0, i64 24
  %25 = load ptr, ptr %18, align 8, !tbaa !4
  store ptr %25, ptr %24, align 8, !tbaa !4
  %26 = getelementptr inbounds nuw i8, ptr %0, i64 32
  %27 = getelementptr inbounds nuw i8, ptr %18, i64 8
  %28 = load ptr, ptr %27, align 8, !tbaa !10
  store ptr %28, ptr %26, align 8, !tbaa !10
  %29 = getelementptr inbounds nuw i8, ptr %0, i64 40
  %30 = getelementptr inbounds nuw i8, ptr %18, i64 16
  %31 = load ptr, ptr %30, align 8, !tbaa !15
  store ptr %31, ptr %29, align 8, !tbaa !15
  tail call void @llvm.memset.p0.i64(ptr noundef nonnull align 8 dereferenceable(24) %18, i8 0, i64 24, i1 false)
  %32 = getelementptr inbounds nuw i8, ptr %0, i64 48
  store ptr %3, ptr %32, align 8, !tbaa !50
  %33 = getelementptr inbounds nuw i8, ptr %0, i64 56
  store ptr %4, ptr %33, align 8, !tbaa !51
  %34 = getelementptr inbounds nuw i8, ptr %0, i64 64
  store ptr %5, ptr %34, align 8, !tbaa !52
  %35 = getelementptr inbounds nuw i8, ptr %0, i64 72
  store ptr %6, ptr %35, align 8, !tbaa !53
  %36 = getelementptr inbounds nuw i8, ptr %0, i64 80
  store ptr %7, ptr %36, align 8, !tbaa !54
  %37 = getelementptr inbounds nuw i8, ptr %0, i64 88
  store ptr %8, ptr %37, align 8, !tbaa !55
  %38 = getelementptr inbounds nuw i8, ptr %0, i64 96
  store ptr %9, ptr %38, align 8, !tbaa !56
  %39 = getelementptr inbounds nuw i8, ptr %0, i64 104
  store ptr %10, ptr %39, align 8, !tbaa !57
  %40 = getelementptr inbounds nuw i8, ptr %0, i64 112
  store ptr %11, ptr %40, align 8, !tbaa !58
  %41 = getelementptr inbounds nuw i8, ptr %0, i64 120
  store ptr %12, ptr %41, align 8, !tbaa !59
  %42 = getelementptr inbounds nuw i8, ptr %0, i64 128
  store ptr %13, ptr %42, align 8, !tbaa !60
  %43 = getelementptr inbounds nuw i8, ptr %0, i64 136
  store ptr %14, ptr %43, align 8, !tbaa !61
  %44 = getelementptr inbounds nuw i8, ptr %0, i64 144
  store ptr %15, ptr %44, align 8, !tbaa !62
  %45 = getelementptr inbounds nuw i8, ptr %0, i64 152
  store ptr %16, ptr %45, align 8, !tbaa !63
  %46 = getelementptr inbounds nuw i8, ptr %0, i64 160
  store ptr %17, ptr %46, align 8, !tbaa !64
  ret void
}